; ModuleID = '4/1598.c'
source_filename = "4/1598.c"
target datalayout = "e-m:e-p270:32:32-p271:32:32-p272:64:64-i64:64-f80:128-n8:16:32:64-S128"
target triple = "x86_64-pc-linux-gnu"

@.str = private unnamed_addr constant [6 x i8] c"%d %d\00", align 1
@.str.1 = private unnamed_addr constant [3 x i8] c"%d\00", align 1
@.str.2 = private unnamed_addr constant [4 x i8] c"%d\0A\00", align 1

; Function Attrs: noinline nounwind uwtable
define dso_local void @main() #0 {
  %1 = alloca [200 x [200 x i32]], align 16
  %2 = alloca i32, align 4
  %3 = alloca i32, align 4
  %4 = alloca i32, align 4
  %5 = alloca i32, align 4
  %6 = alloca i32, align 4
  store i32 0, i32* %5, align 4
  br label %7

7:                                                ; preds = %25, %0
  %8 = load i32, i32* %5, align 4
  %9 = icmp slt i32 %8, 200
  br i1 %9, label %10, label %28

10:                                               ; preds = %7
  store i32 0, i32* %4, align 4
  br label %11

11:                                               ; preds = %21, %10
  %12 = load i32, i32* %4, align 4
  %13 = icmp slt i32 %12, 200
  br i1 %13, label %14, label %24

14:                                               ; preds = %11
  %15 = load i32, i32* %5, align 4
  %16 = sext i32 %15 to i64
  %17 = getelementptr inbounds [200 x [200 x i32]], [200 x [200 x i32]]* %1, i64 0, i64 %16
  %18 = load i32, i32* %4, align 4
  %19 = sext i32 %18 to i64
  %20 = getelementptr inbounds [200 x i32], [200 x i32]* %17, i64 0, i64 %19
  store i32 -32767, i32* %20, align 4
  br label %21

21:                                               ; preds = %14
  %22 = load i32, i32* %4, align 4
  %23 = add nsw i32 %22, 1
  store i32 %23, i32* %4, align 4
  br label %11

24:                                               ; preds = %11
  br label %25

25:                                               ; preds = %24
  %26 = load i32, i32* %5, align 4
  %27 = add nsw i32 %26, 1
  store i32 %27, i32* %5, align 4
  br label %7

28:                                               ; preds = %7
  %29 = call i32 (i8*, ...) @__isoc99_scanf(i8* getelementptr inbounds ([6 x i8], [6 x i8]* @.str, i64 0, i64 0), i32* %3, i32* %2)
  store i32 0, i32* %5, align 4
  br label %30

30:                                               ; preds = %51, %28
  %31 = load i32, i32* %5, align 4
  %32 = load i32, i32* %3, align 4
  %33 = icmp slt i32 %31, %32
  br i1 %33, label %34, label %54

34:                                               ; preds = %30
  store i32 0, i32* %4, align 4
  br label %35

35:                                               ; preds = %47, %34
  %36 = load i32, i32* %4, align 4
  %37 = load i32, i32* %2, align 4
  %38 = icmp slt i32 %36, %37
  br i1 %38, label %39, label %50

39:                                               ; preds = %35
  %40 = load i32, i32* %5, align 4
  %41 = sext i32 %40 to i64
  %42 = getelementptr inbounds [200 x [200 x i32]], [200 x [200 x i32]]* %1, i64 0, i64 %41
  %43 = load i32, i32* %4, align 4
  %44 = sext i32 %43 to i64
  %45 = getelementptr inbounds [200 x i32], [200 x i32]* %42, i64 0, i64 %44
  %46 = call i32 (i8*, ...) @__isoc99_scanf(i8* getelementptr inbounds ([3 x i8], [3 x i8]* @.str.1, i64 0, i64 0), i32* %45)
  br label %47

47:                                               ; preds = %39
  %48 = load i32, i32* %4, align 4
  %49 = add nsw i32 %48, 1
  store i32 %49, i32* %4, align 4
  br label %35

50:                                               ; preds = %35
  br label %51

51:                                               ; preds = %50
  %52 = load i32, i32* %5, align 4
  %53 = add nsw i32 %52, 1
  store i32 %53, i32* %5, align 4
  br label %30

54:                                               ; preds = %30
  store i32 0, i32* %6, align 4
  br label %55

55:                                               ; preds = %94, %54
  %56 = load i32, i32* %6, align 4
  %57 = load i32, i32* %3, align 4
  %58 = load i32, i32* %2, align 4
  %59 = add nsw i32 %57, %58
  %60 = sub nsw i32 %59, 1
  %61 = icmp slt i32 %56, %60
  br i1 %61, label %62, label %97

62:                                               ; preds = %55
  %63 = load i32, i32* %6, align 4
  store i32 %63, i32* %5, align 4
  br label %64

64:                                               ; preds = %90, %62
  %65 = load i32, i32* %5, align 4
  %66 = icmp sge i32 %65, 0
  br i1 %66, label %67, label %93

67:                                               ; preds = %64
  %68 = load i32, i32* %6, align 4
  %69 = load i32, i32* %5, align 4
  %70 = sub nsw i32 %68, %69
  %71 = sext i32 %70 to i64
  %72 = getelementptr inbounds [200 x [200 x i32]], [200 x [200 x i32]]* %1, i64 0, i64 %71
  %73 = load i32, i32* %5, align 4
  %74 = sext i32 %73 to i64
  %75 = getelementptr inbounds [200 x i32], [200 x i32]* %72, i64 0, i64 %74
  %76 = load i32, i32* %75, align 4
  %77 = icmp ne i32 %76, -32767
  br i1 %77, label %78, label %89

78:                                               ; preds = %67
  %79 = load i32, i32* %6, align 4
  %80 = load i32, i32* %5, align 4
  %81 = sub nsw i32 %79, %80
  %82 = sext i32 %81 to i64
  %83 = getelementptr inbounds [200 x [200 x i32]], [200 x [200 x i32]]* %1, i64 0, i64 %82
  %84 = load i32, i32* %5, align 4
  %85 = sext i32 %84 to i64
  %86 = getelementptr inbounds [200 x i32], [200 x i32]* %83, i64 0, i64 %85
  %87 = load i32, i32* %86, align 4
  %88 = call i32 (i8*, ...) @printf(i8* getelementptr inbounds ([4 x i8], [4 x i8]* @.str.2, i64 0, i64 0), i32 %87)
  br label %89

89:                                               ; preds = %78, %67
  br label %90

90:                                               ; preds = %89
  %91 = load i32, i32* %5, align 4
  %92 = add nsw i32 %91, -1
  store i32 %92, i32* %5, align 4
  br label %64

93:                                               ; preds = %64
  br label %94

94:                                               ; preds = %93
  %95 = load i32, i32* %6, align 4
  %96 = add nsw i32 %95, 1
  store i32 %96, i32* %6, align 4
  br label %55

97:                                               ; preds = %55
  ret void
}

declare dso_local i32 @__isoc99_scanf(i8*, ...) #1

declare dso_local i32 @printf(i8*, ...) #1


!llvm.module.flags = !{!0}
!llvm.ident = !{!1}

!0 = !{i32 1, !"wchar_size", i32 4}
!1 = !{!"clang version 10.0.0-4ubuntu1 "}
